; Function Attrs: mustprogress uwtable
define void @_ZN9MlsPlugin26addMarchingCubesParametersER17RichParameterList(ptr nocapture nonnull readnone align 8 %0, ptr noundef nonnull align 8 dereferenceable(24) %1) local_unnamed_addr #9 align 2 personality ptr @__gxx_personality_v0 {
  %3 = alloca %class.RichInt, align 8
  %4 = alloca %class.QString, align 8
  %5 = alloca %class.QString, align 8
  %6 = alloca %class.QString, align 8
  %7 = alloca %class.QString, align 8
  %8 = tail call noundef ptr @_ZN7QString16fromAscii_helperEPKci(ptr noundef nonnull @.str.92, i32 noundef 10)
  store ptr %8, ptr %4, align 8
  %9 = invoke noundef ptr @_ZN7QString16fromAscii_helperEPKci(ptr noundef nonnull @.str.93, i32 noundef 15)
          to label %10 unwind label %32

10:                                               ; preds = %2
  store ptr %9, ptr %5, align 8
  %11 = invoke noundef ptr @_ZN7QString16fromAscii_helperEPKci(ptr noundef nonnull @.str.94, i32 noundef 160)
          to label %12 unwind label %34

12:                                               ; preds = %10
  store ptr %11, ptr %6, align 8
  store ptr @_ZN10QArrayData11shared_nullE, ptr %7, align 8
  invoke void @_ZN7RichIntC1ERK7QStringiS2_S2_bS2_(ptr noundef nonnull align 8 dereferenceable(56) %3, ptr noundef nonnull align 8 dereferenceable(8) %4, i32 noundef 200, ptr noundef nonnull align 8 dereferenceable(8) %5, ptr noundef nonnull align 8 dereferenceable(8) %6, i1 noundef zeroext false, ptr noundef nonnull align 8 dereferenceable(8) %7)
          to label %13 unwind label %36

13:                                               ; preds = %12
  %14 = invoke noundef nonnull align 8 dereferenceable(56) ptr @_ZN17RichParameterList8addParamERK13RichParameter(ptr noundef nonnull align 8 dereferenceable(24) %1, ptr noundef nonnull align 8 dereferenceable(56) %3)
          to label %15 unwind label %38

15:                                               ; preds = %13
  call void @_ZN7RichIntD1Ev(ptr noundef nonnull align 8 dereferenceable(56) %3) #28
  %16 = load ptr, ptr %7, align 8
  %17 = load atomic i32, ptr %16 monotonic, align 4
  switch i32 %17, label %_ZN9QtPrivate8RefCount5derefEv.exit.i [
    i32 0, label %_ZN9QtPrivate8RefCount5derefEv.exit.thread2.i
    i32 -1, label %_ZN7QStringD2Ev.exit
  ]

_ZN9QtPrivate8RefCount5derefEv.exit.i:            ; preds = %15
  %18 = atomicrmw sub ptr %16, i32 1 seq_cst, align 4
  %.not.i = icmp eq i32 %18, 1
  br i1 %.not.i, label %_ZN9QtPrivate8RefCount5derefEv.exit._ZN9QtPrivate8RefCount5derefEv.exit.thread2_crit_edge.i, label %_ZN7QStringD2Ev.exit

_ZN9QtPrivate8RefCount5derefEv.exit._ZN9QtPrivate8RefCount5derefEv.exit.thread2_crit_edge.i: ; preds = %_ZN9QtPrivate8RefCount5derefEv.exit.i
  %.pre.i = load ptr, ptr %7, align 8
  br label %_ZN9QtPrivate8RefCount5derefEv.exit.thread2.i

_ZN9QtPrivate8RefCount5derefEv.exit.thread2.i:    ; preds = %_ZN9QtPrivate8RefCount5derefEv.exit._ZN9QtPrivate8RefCount5derefEv.exit.thread2_crit_edge.i, %15
  %19 = phi ptr [ %.pre.i, %_ZN9QtPrivate8RefCount5derefEv.exit._ZN9QtPrivate8RefCount5derefEv.exit.thread2_crit_edge.i ], [ %16, %15 ]
  call void @_ZN10QArrayData10deallocateEPS_mm(ptr noundef %19, i64 noundef 2, i64 noundef 8) #28
  br label %_ZN7QStringD2Ev.exit

_ZN7QStringD2Ev.exit:                             ; preds = %15, %_ZN9QtPrivate8RefCount5derefEv.exit.i, %_ZN9QtPrivate8RefCount5derefEv.exit.thread2.i
  %20 = load ptr, ptr %6, align 8
  %21 = load atomic i32, ptr %20 monotonic, align 4
  switch i32 %21, label %_ZN9QtPrivate8RefCount5derefEv.exit.i10 [
    i32 0, label %_ZN9QtPrivate8RefCount5derefEv.exit.thread2.i9
    i32 -1, label %_ZN7QStringD2Ev.exit14
  ]

_ZN9QtPrivate8RefCount5derefEv.exit.i10:          ; preds = %_ZN7QStringD2Ev.exit
  %22 = atomicrmw sub ptr %20, i32 1 seq_cst, align 4
  %.not.i11 = icmp eq i32 %22, 1
  br i1 %.not.i11, label %_ZN9QtPrivate8RefCount5derefEv.exit._ZN9QtPrivate8RefCount5derefEv.exit.thread2_crit_edge.i12, label %_ZN7QStringD2Ev.exit14

_ZN9QtPrivate8RefCount5derefEv.exit._ZN9QtPrivate8RefCount5derefEv.exit.thread2_crit_edge.i12: ; preds = %_ZN9QtPrivate8RefCount5derefEv.exit.i10
  %.pre.i13 = load ptr, ptr %6, align 8
  br label %_ZN9QtPrivate8RefCount5derefEv.exit.thread2.i9

_ZN9QtPrivate8RefCount5derefEv.exit.thread2.i9:   ; preds = %_ZN9QtPrivate8RefCount5derefEv.exit._ZN9QtPrivate8RefCount5derefEv.exit.thread2_crit_edge.i12, %_ZN7QStringD2Ev.exit
  %23 = phi ptr [ %.pre.i13, %_ZN9QtPrivate8RefCount5derefEv.exit._ZN9QtPrivate8RefCount5derefEv.exit.thread2_crit_edge.i12 ], [ %20, %_ZN7QStringD2Ev.exit ]
  call void @_ZN10QArrayData10deallocateEPS_mm(ptr noundef %23, i64 noundef 2, i64 noundef 8) #28
  br label %_ZN7QStringD2Ev.exit14

_ZN7QStringD2Ev.exit14:                           ; preds = %_ZN7QStringD2Ev.exit, %_ZN9QtPrivate8RefCount5derefEv.exit.i10, %_ZN9QtPrivate8RefCount5derefEv.exit.thread2.i9
  %24 = load ptr, ptr %5, align 8
  %25 = load atomic i32, ptr %24 monotonic, align 4
  switch i32 %25, label %_ZN9QtPrivate8RefCount5derefEv.exit.i16 [
    i32 0, label %_ZN9QtPrivate8RefCount5derefEv.exit.thread2.i15
    i32 -1, label %_ZN7QStringD2Ev.exit20
  ]

_ZN9QtPrivate8RefCount5derefEv.exit.i16:          ; preds = %_ZN7QStringD2Ev.exit14
  %26 = atomicrmw sub ptr %24, i32 1 seq_cst, align 4
  %.not.i17 = icmp eq i32 %26, 1
  br i1 %.not.i17, label %_ZN9QtPrivate8RefCount5derefEv.exit._ZN9QtPrivate8RefCount5derefEv.exit.thread2_crit_edge.i18, label %_ZN7QStringD2Ev.exit20

_ZN9QtPrivate8RefCount5derefEv.exit._ZN9QtPrivate8RefCount5derefEv.exit.thread2_crit_edge.i18: ; preds = %_ZN9QtPrivate8RefCount5derefEv.exit.i16
  %.pre.i19 = load ptr, ptr %5, align 8
  br label %_ZN9QtPrivate8RefCount5derefEv.exit.thread2.i15

_ZN9QtPrivate8RefCount5derefEv.exit.thread2.i15:  ; preds = %_ZN9QtPrivate8RefCount5derefEv.exit._ZN9QtPrivate8RefCount5derefEv.exit.thread2_crit_edge.i18, %_ZN7QStringD2Ev.exit14
  %27 = phi ptr [ %.pre.i19, %_ZN9QtPrivate8RefCount5derefEv.exit._ZN9QtPrivate8RefCount5derefEv.exit.thread2_crit_edge.i18 ], [ %24, %_ZN7QStringD2Ev.exit14 ]
  call void @_ZN10QArrayData10deallocateEPS_mm(ptr noundef %27, i64 noundef 2, i64 noundef 8) #28
  br label %_ZN7QStringD2Ev.exit20

_ZN7QStringD2Ev.exit20:                           ; preds = %_ZN7QStringD2Ev.exit14, %_ZN9QtPrivate8RefCount5derefEv.exit.i16, %_ZN9QtPrivate8RefCount5derefEv.exit.thread2.i15
  %28 = load ptr, ptr %4, align 8
  %29 = load atomic i32, ptr %28 monotonic, align 4
  switch i32 %29, label %_ZN9QtPrivate8RefCount5derefEv.exit.i22 [
    i32 0, label %_ZN9QtPrivate8RefCount5derefEv.exit.thread2.i21
    i32 -1, label %_ZN7QStringD2Ev.exit26
  ]

_ZN9QtPrivate8RefCount5derefEv.exit.i22:          ; preds = %_ZN7QStringD2Ev.exit20
  %30 = atomicrmw sub ptr %28, i32 1 seq_cst, align 4
  %.not.i23 = icmp eq i32 %30, 1
  br i1 %.not.i23, label %_ZN9QtPrivate8RefCount5derefEv.exit._ZN9QtPrivate8RefCount5derefEv.exit.thread2_crit_edge.i24, label %_ZN7QStringD2Ev.exit26

_ZN9QtPrivate8RefCount5derefEv.exit._ZN9QtPrivate8RefCount5derefEv.exit.thread2_crit_edge.i24: ; preds = %_ZN9QtPrivate8RefCount5derefEv.exit.i22
  %.pre.i25 = load ptr, ptr %4, align 8
  br label %_ZN9QtPrivate8RefCount5derefEv.exit.thread2.i21

_ZN9QtPrivate8RefCount5derefEv.exit.thread2.i21:  ; preds = %_ZN9QtPrivate8RefCount5derefEv.exit._ZN9QtPrivate8RefCount5derefEv.exit.thread2_crit_edge.i24, %_ZN7QStringD2Ev.exit20
  %31 = phi ptr [ %.pre.i25, %_ZN9QtPrivate8RefCount5derefEv.exit._ZN9QtPrivate8RefCount5derefEv.exit.thread2_crit_edge.i24 ], [ %28, %_ZN7QStringD2Ev.exit20 ]
  call void @_ZN10QArrayData10deallocateEPS_mm(ptr noundef %31, i64 noundef 2, i64 noundef 8) #28
  br label %_ZN7QStringD2Ev.exit26

_ZN7QStringD2Ev.exit26:                           ; preds = %_ZN7QStringD2Ev.exit20, %_ZN9QtPrivate8RefCount5derefEv.exit.i22, %_ZN9QtPrivate8RefCount5derefEv.exit.thread2.i21
  ret void

32:                                               ; preds = %2
  %33 = landingpad { ptr, i32 }
          cleanup
  br label %42

34:                                               ; preds = %10
  %35 = landingpad { ptr, i32 }
          cleanup
  br label %41

36:                                               ; preds = %12
  %37 = landingpad { ptr, i32 }
          cleanup
  br label %40

38:                                               ; preds = %13
  %39 = landingpad { ptr, i32 }
          cleanup
  call void @_ZN7RichIntD1Ev(ptr noundef nonnull align 8 dereferenceable(56) %3) #28
  br label %40

40:                                               ; preds = %38, %36
  %.pn = phi { ptr, i32 } [ %39, %38 ], [ %37, %36 ]
  call void @_ZN7QStringD2Ev(ptr noundef nonnull align 8 dereferenceable(8) %7) #28
  call void @_ZN7QStringD2Ev(ptr noundef nonnull align 8 dereferenceable(8) %6) #28
  br label %41

41:                                               ; preds = %40, %34
  %.pn.pn = phi { ptr, i32 } [ %.pn, %40 ], [ %35, %34 ]
  call void @_ZN7QStringD2Ev(ptr noundef nonnull align 8 dereferenceable(8) %5) #28
  br label %42

42:                                               ; preds = %41, %32
  %.pn.pn.pn = phi { ptr, i32 } [ %.pn.pn, %41 ], [ %33, %32 ]
  call void @_ZN7QStringD2Ev(ptr noundef nonnull align 8 dereferenceable(8) %4) #28
  resume { ptr, i32 } %.pn.pn.pn
}